target datalayout = "e-m:e-p270:32:32-p271:32:32-p272:64:64-i64:64-i128:128-f80:128-n8:16:32:64-S128"
target triple = "x86_64-pc-linux-gnu"

%"class.smt::relevancy_eh" = type { ptr }
%"class.smt::pair_relevancy_eh" = type { %"class.smt::relevancy_eh", ptr, ptr, ptr }

; Function Attrs: mustprogress uwtable
define hidden void @_ZN3smt17pair_relevancy_ehclERNS_20relevancy_propagatorE(ptr noundef nonnull align 8 dereferenceable(32) %0, ptr noundef nonnull align 8 dereferenceable(16) %1) unnamed_addr #6 align 2 {
  %3 = alloca ptr, align 8
  %4 = alloca ptr, align 8
  store ptr %0, ptr %3, align 8, !tbaa !51
  store ptr %1, ptr %4, align 8, !tbaa !30
  %5 = load ptr, ptr %3, align 8
  %6 = load ptr, ptr %4, align 8, !tbaa !30
  %7 = getelementptr inbounds nuw %"class.smt::pair_relevancy_eh", ptr %5, i32 0, i32 1
  %8 = load ptr, ptr %7, align 8, !tbaa !53
  %9 = load ptr, ptr %6, align 8, !tbaa !34
  %10 = getelementptr inbounds ptr, ptr %9, i64 7
  %11 = load ptr, ptr %10, align 8
  %12 = call noundef zeroext i1 %11(ptr noundef nonnull align 8 dereferenceable(16) %6, ptr noundef %8)
  br i1 %12, label %14, label %13

13:                                               ; preds = %2
  br label %30

14:                                               ; preds = %2
  %15 = load ptr, ptr %4, align 8, !tbaa !30
  %16 = getelementptr inbounds nuw %"class.smt::pair_relevancy_eh", ptr %5, i32 0, i32 2
  %17 = load ptr, ptr %16, align 8, !tbaa !55
  %18 = load ptr, ptr %15, align 8, !tbaa !34
  %19 = getelementptr inbounds ptr, ptr %18, i64 7
  %20 = load ptr, ptr %19, align 8
  %21 = call noundef zeroext i1 %20(ptr noundef nonnull align 8 dereferenceable(16) %15, ptr noundef %17)
  br i1 %21, label %23, label %22

22:                                               ; preds = %14
  br label %30

23:                                               ; preds = %14
  %24 = load ptr, ptr %4, align 8, !tbaa !30
  %25 = getelementptr inbounds nuw %"class.smt::pair_relevancy_eh", ptr %5, i32 0, i32 3
  %26 = load ptr, ptr %25, align 8, !tbaa !56
  %27 = load ptr, ptr %24, align 8, !tbaa !34
  %28 = getelementptr inbounds ptr, ptr %27, i64 6
  %29 = load ptr, ptr %28, align 8
  call void %29(ptr noundef nonnull align 8 dereferenceable(16) %24, ptr noundef %26)
  br label %30

30:                                               ; preds = %23, %22, %13
  ret void
}